target datalayout = "e-m:e-p270:32:32-p271:32:32-p272:64:64-i64:64-i128:128-f80:128-n8:16:32:64-S128"
target triple = "x86_64-pc-linux-gnu"

%struct.mi_memid_s = type { %union.anon, i8, i8, i8, i32 }
%union.anon = type { %struct.mi_memid_os_info }
%struct.mi_memid_os_info = type { ptr, i64 }
%struct.mi_arena_s = type { i32, %struct.mi_memid_s, ptr, i64, i64, i64, %struct.mi_memid_s, i32, i8, i8, %union.pthread_mutex_t, i64, i64, ptr, ptr, ptr, ptr, [1 x i64] }
%union.pthread_mutex_t = type { %struct.__pthread_mutex_s }
%struct.__pthread_mutex_s = type { i32, i32, i32, i32, i32, i16, i16, %struct.__pthread_internal_list }
%struct.__pthread_internal_list = type { ptr, ptr }

@mi_arena_count = internal global i64 0, align 64
@mi_arenas = internal global [132 x ptr] zeroinitializer, align 64
@.str.7 = private unnamed_addr constant [1 x i8] zeroinitializer, align 1
@.str.8 = private unnamed_addr constant [57 x i8] c"arena %zu: %zu blocks of size %zuMiB (in %zu fields) %s\0A\00", align 1
@.str.9 = private unnamed_addr constant [9 x i8] c", pinned\00", align 1
@.str.10 = private unnamed_addr constant [3 x i8] c"  \00", align 1
@.str.11 = private unnamed_addr constant [13 x i8] c"inuse blocks\00", align 1
@.str.12 = private unnamed_addr constant [17 x i8] c"committed blocks\00", align 1
@.str.13 = private unnamed_addr constant [29 x i8] c"total inuse blocks    : %zu\0A\00", align 1
@.str.22 = private unnamed_addr constant [7 x i8] c"%s%s:\0A\00", align 1
@.str.23 = private unnamed_addr constant [8 x i8] c"%s  %s\0A\00", align 1
@.str.24 = private unnamed_addr constant [22 x i8] c"%s  total ('x'): %zu\0A\00", align 1

; Function Attrs: nounwind uwtable
define internal i64 @mi_debug_show_bitmap(ptr noundef %0, ptr noundef %1, i64 noundef %2, ptr noundef %3, i64 noundef %4) #0 {
  %6 = alloca ptr, align 8
  %7 = alloca ptr, align 8
  %8 = alloca i64, align 8
  %9 = alloca ptr, align 8
  %10 = alloca i64, align 8
  %11 = alloca i64, align 8
  %12 = alloca i64, align 8
  %13 = alloca i64, align 8
  %14 = alloca i32, align 4
  %15 = alloca [65 x i8], align 16
  %16 = alloca i64, align 8
  %17 = alloca i64, align 8
  %18 = alloca i64, align 8
  %19 = alloca i8, align 1
  store ptr %0, ptr %6, align 8, !tbaa !64
  store ptr %1, ptr %7, align 8, !tbaa !64
  store i64 %2, ptr %8, align 8, !tbaa !15
  store ptr %3, ptr %9, align 8, !tbaa !53
  store i64 %4, ptr %10, align 8, !tbaa !15
  %20 = load ptr, ptr %6, align 8, !tbaa !64
  %21 = load ptr, ptr %7, align 8, !tbaa !64
  call void (ptr, ...) @_mi_verbose_message(ptr noundef @.str.22, ptr noundef %20, ptr noundef %21) #12
  call void @llvm.lifetime.start.p0(i64 8, ptr %11) #13
  store i64 0, ptr %11, align 8, !tbaa !15
  call void @llvm.lifetime.start.p0(i64 8, ptr %12) #13
  store i64 0, ptr %12, align 8, !tbaa !15
  call void @llvm.lifetime.start.p0(i64 8, ptr %13) #13
  store i64 0, ptr %13, align 8, !tbaa !15
  br label %22

22:                                               ; preds = %73, %5
  %23 = load i64, ptr %13, align 8, !tbaa !15
  %24 = load i64, ptr %10, align 8, !tbaa !15
  %25 = icmp ult i64 %23, %24
  br i1 %25, label %27, label %26

26:                                               ; preds = %22
  store i32 2, ptr %14, align 4
  call void @llvm.lifetime.end.p0(i64 8, ptr %13) #13
  br label %76

27:                                               ; preds = %22
  call void @llvm.lifetime.start.p0(i64 65, ptr %15) #13
  call void @llvm.lifetime.start.p0(i64 8, ptr %16) #13
  %28 = load ptr, ptr %9, align 8, !tbaa !53
  %29 = load i64, ptr %13, align 8, !tbaa !15
  %30 = getelementptr inbounds nuw i64, ptr %28, i64 %29
  %31 = load atomic i64, ptr %30 monotonic, align 8
  store i64 %31, ptr %17, align 8
  %32 = load i64, ptr %17, align 8, !tbaa !15
  store i64 %32, ptr %16, align 8, !tbaa !15
  call void @llvm.lifetime.start.p0(i64 8, ptr %18) #13
  store i64 0, ptr %18, align 8, !tbaa !15
  br label %33

33:                                               ; preds = %64, %27
  %34 = load i64, ptr %18, align 8, !tbaa !15
  %35 = icmp ult i64 %34, 64
  br i1 %35, label %37, label %36

36:                                               ; preds = %33
  store i32 5, ptr %14, align 4
  call void @llvm.lifetime.end.p0(i64 8, ptr %18) #13
  br label %69

37:                                               ; preds = %33
  %38 = load i64, ptr %11, align 8, !tbaa !15
  %39 = load i64, ptr %8, align 8, !tbaa !15
  %40 = icmp ult i64 %38, %39
  br i1 %40, label %41, label %60

41:                                               ; preds = %37
  call void @llvm.lifetime.start.p0(i64 1, ptr %19) #13
  %42 = load i64, ptr %18, align 8, !tbaa !15
  %43 = shl i64 1, %42
  %44 = load i64, ptr %16, align 8, !tbaa !15
  %45 = and i64 %43, %44
  %46 = icmp ne i64 %45, 0
  %47 = zext i1 %46 to i8
  store i8 %47, ptr %19, align 1, !tbaa !21
  %48 = load i8, ptr %19, align 1, !tbaa !21, !range !22, !noundef !23
  %49 = trunc i8 %48 to i1
  br i1 %49, label %50, label %53

50:                                               ; preds = %41
  %51 = load i64, ptr %12, align 8, !tbaa !15
  %52 = add i64 %51, 1
  store i64 %52, ptr %12, align 8, !tbaa !15
  br label %53

53:                                               ; preds = %50, %41
  %54 = load i8, ptr %19, align 1, !tbaa !21, !range !22, !noundef !23
  %55 = trunc i8 %54 to i1
  %56 = select i1 %55, i32 120, i32 46
  %57 = trunc i32 %56 to i8
  %58 = load i64, ptr %18, align 8, !tbaa !15
  %59 = getelementptr inbounds nuw [65 x i8], ptr %15, i64 0, i64 %58
  store i8 %57, ptr %59, align 1, !tbaa !33
  call void @llvm.lifetime.end.p0(i64 1, ptr %19) #13
  br label %63

60:                                               ; preds = %37
  %61 = load i64, ptr %18, align 8, !tbaa !15
  %62 = getelementptr inbounds nuw [65 x i8], ptr %15, i64 0, i64 %61
  store i8 32, ptr %62, align 1, !tbaa !33
  br label %63

63:                                               ; preds = %60, %53
  br label %64

64:                                               ; preds = %63
  %65 = load i64, ptr %18, align 8, !tbaa !15
  %66 = add i64 %65, 1
  store i64 %66, ptr %18, align 8, !tbaa !15
  %67 = load i64, ptr %11, align 8, !tbaa !15
  %68 = add i64 %67, 1
  store i64 %68, ptr %11, align 8, !tbaa !15
  br label %33, !llvm.loop !92

69:                                               ; preds = %36
  %70 = getelementptr inbounds [65 x i8], ptr %15, i64 0, i64 64
  store i8 0, ptr %70, align 16, !tbaa !33
  %71 = load ptr, ptr %6, align 8, !tbaa !64
  %72 = getelementptr inbounds [65 x i8], ptr %15, i64 0, i64 0
  call void (ptr, ...) @_mi_verbose_message(ptr noundef @.str.23, ptr noundef %71, ptr noundef %72) #12
  call void @llvm.lifetime.end.p0(i64 8, ptr %16) #13
  call void @llvm.lifetime.end.p0(i64 65, ptr %15) #13
  br label %73

73:                                               ; preds = %69
  %74 = load i64, ptr %13, align 8, !tbaa !15
  %75 = add i64 %74, 1
  store i64 %75, ptr %13, align 8, !tbaa !15
  br label %22, !llvm.loop !93

76:                                               ; preds = %26
  %77 = load ptr, ptr %6, align 8, !tbaa !64
  %78 = load i64, ptr %12, align 8, !tbaa !15
  call void (ptr, ...) @_mi_verbose_message(ptr noundef @.str.24, ptr noundef %77, i64 noundef %78) #12
  %79 = load i64, ptr %12, align 8, !tbaa !15
  store i32 1, ptr %14, align 4
  call void @llvm.lifetime.end.p0(i64 8, ptr %12) #13
  call void @llvm.lifetime.end.p0(i64 8, ptr %11) #13
  ret i64 %79
}

; Function Attrs: nounwind uwtable
define hidden void @mi_debug_show_arenas() #0 {
  %1 = alloca i8, align 1
  %2 = alloca i64, align 8
  %3 = alloca i64, align 8
  %4 = alloca i64, align 8
  %5 = alloca i64, align 8
  %6 = alloca i32, align 4
  %7 = alloca ptr, align 8
  %8 = alloca ptr, align 8
  call void @llvm.lifetime.start.p0(i64 1, ptr %1) #13
  store i8 1, ptr %1, align 1, !tbaa !21
  call void @llvm.lifetime.start.p0(i64 8, ptr %2) #13
  %9 = load atomic i64, ptr @mi_arena_count monotonic, align 64
  store i64 %9, ptr %3, align 8
  %10 = load i64, ptr %3, align 8, !tbaa !15
  store i64 %10, ptr %2, align 8, !tbaa !15
  call void @llvm.lifetime.start.p0(i64 8, ptr %4) #13
  store i64 0, ptr %4, align 8, !tbaa !15
  call void @llvm.lifetime.start.p0(i64 8, ptr %5) #13
  store i64 0, ptr %5, align 8, !tbaa !15
  br label %11

11:                                               ; preds = %69, %0
  %12 = load i64, ptr %5, align 8, !tbaa !15
  %13 = load i64, ptr %2, align 8, !tbaa !15
  %14 = icmp ult i64 %12, %13
  br i1 %14, label %16, label %15

15:                                               ; preds = %11
  store i32 2, ptr %6, align 4
  br label %72

16:                                               ; preds = %11
  call void @llvm.lifetime.start.p0(i64 8, ptr %7) #13
  %17 = load i64, ptr %5, align 8, !tbaa !15
  %18 = getelementptr inbounds nuw [132 x ptr], ptr @mi_arenas, i64 0, i64 %17
  %19 = load atomic i64, ptr %18 monotonic, align 8
  store i64 %19, ptr %8, align 8
  %20 = load ptr, ptr %8, align 8, !tbaa !16
  store ptr %20, ptr %7, align 8, !tbaa !16
  %21 = load ptr, ptr %7, align 8, !tbaa !16
  %22 = icmp eq ptr %21, null
  br i1 %22, label %23, label %24

23:                                               ; preds = %16
  store i32 2, ptr %6, align 4
  br label %66

24:                                               ; preds = %16
  %25 = load i64, ptr %5, align 8, !tbaa !15
  %26 = load ptr, ptr %7, align 8, !tbaa !16
  %27 = getelementptr inbounds nuw %struct.mi_arena_s, ptr %26, i32 0, i32 3
  %28 = load i64, ptr %27, align 8, !tbaa !75
  %29 = load ptr, ptr %7, align 8, !tbaa !16
  %30 = getelementptr inbounds nuw %struct.mi_arena_s, ptr %29, i32 0, i32 4
  %31 = load i64, ptr %30, align 8, !tbaa !20
  %32 = load ptr, ptr %7, align 8, !tbaa !16
  %33 = getelementptr inbounds nuw %struct.mi_arena_s, ptr %32, i32 0, i32 1
  %34 = getelementptr inbounds nuw %struct.mi_memid_s, ptr %33, i32 0, i32 1
  %35 = load i8, ptr %34, align 8, !tbaa !76, !range !22, !noundef !23
  %36 = trunc i8 %35 to i1
  %37 = select i1 %36, ptr @.str.9, ptr @.str.7
  call void (ptr, ...) @_mi_verbose_message(ptr noundef @.str.8, i64 noundef %25, i64 noundef %28, i64 noundef 4, i64 noundef %31, ptr noundef %37) #12
  %38 = load ptr, ptr %7, align 8, !tbaa !16
  %39 = getelementptr inbounds nuw %struct.mi_arena_s, ptr %38, i32 0, i32 3
  %40 = load i64, ptr %39, align 8, !tbaa !75
  %41 = load ptr, ptr %7, align 8, !tbaa !16
  %42 = getelementptr inbounds nuw %struct.mi_arena_s, ptr %41, i32 0, i32 17
  %43 = getelementptr inbounds [1 x i64], ptr %42, i64 0, i64 0
  %44 = load ptr, ptr %7, align 8, !tbaa !16
  %45 = getelementptr inbounds nuw %struct.mi_arena_s, ptr %44, i32 0, i32 4
  %46 = load i64, ptr %45, align 8, !tbaa !20
  %47 = call i64 @mi_debug_show_bitmap(ptr noundef @.str.10, ptr noundef @.str.11, i64 noundef %40, ptr noundef %43, i64 noundef %46) #12
  %48 = load i64, ptr %4, align 8, !tbaa !15
  %49 = add i64 %48, %47
  store i64 %49, ptr %4, align 8, !tbaa !15
  %50 = load ptr, ptr %7, align 8, !tbaa !16
  %51 = getelementptr inbounds nuw %struct.mi_arena_s, ptr %50, i32 0, i32 14
  %52 = load ptr, ptr %51, align 8, !tbaa !77
  %53 = icmp ne ptr %52, null
  br i1 %53, label %54, label %65

54:                                               ; preds = %24
  %55 = load ptr, ptr %7, align 8, !tbaa !16
  %56 = getelementptr inbounds nuw %struct.mi_arena_s, ptr %55, i32 0, i32 3
  %57 = load i64, ptr %56, align 8, !tbaa !75
  %58 = load ptr, ptr %7, align 8, !tbaa !16
  %59 = getelementptr inbounds nuw %struct.mi_arena_s, ptr %58, i32 0, i32 14
  %60 = load ptr, ptr %59, align 8, !tbaa !77
  %61 = load ptr, ptr %7, align 8, !tbaa !16
  %62 = getelementptr inbounds nuw %struct.mi_arena_s, ptr %61, i32 0, i32 4
  %63 = load i64, ptr %62, align 8, !tbaa !20
  %64 = call i64 @mi_debug_show_bitmap(ptr noundef @.str.10, ptr noundef @.str.12, i64 noundef %57, ptr noundef %60, i64 noundef %63) #12
  br label %65

65:                                               ; preds = %54, %24
  store i32 0, ptr %6, align 4
  br label %66

66:                                               ; preds = %65, %23
  call void @llvm.lifetime.end.p0(i64 8, ptr %7) #13
  %67 = load i32, ptr %6, align 4
  switch i32 %67, label %72 [
    i32 0, label %68
  ]

68:                                               ; preds = %66
  br label %69

69:                                               ; preds = %68
  %70 = load i64, ptr %5, align 8, !tbaa !15
  %71 = add i64 %70, 1
  store i64 %71, ptr %5, align 8, !tbaa !15
  br label %11, !llvm.loop !91

72:                                               ; preds = %66, %15
  call void @llvm.lifetime.end.p0(i64 8, ptr %5) #13
  br label %73

73:                                               ; preds = %72
  %74 = load i64, ptr %4, align 8, !tbaa !15
  call void (ptr, ...) @_mi_verbose_message(ptr noundef @.str.13, i64 noundef %74) #12
  call void @llvm.lifetime.end.p0(i64 8, ptr %4) #13
  call void @llvm.lifetime.end.p0(i64 8, ptr %2) #13
  call void @llvm.lifetime.end.p0(i64 1, ptr %1) #13
  ret void
}