; Function Attrs: nounwind uwtable
define hidden void @mi_debug_show_arenas() local_unnamed_addr #0 {
  %1 = alloca [65 x i8], align 16
  %2 = alloca [65 x i8], align 16
  %3 = load atomic i64, ptr @mi_arena_count monotonic, align 64
  %.not47 = icmp eq i64 %3, 0
  br i1 %.not47, label %.thread, label %.lr.ph

.lr.ph:                                           ; preds = %0
  %4 = getelementptr inbounds nuw i8, ptr %2, i64 64
  %5 = getelementptr inbounds nuw i8, ptr %1, i64 64
  br label %6

6:                                                ; preds = %.lr.ph, %58
  %.044 = phi i64 [ 0, %.lr.ph ], [ %37, %58 ]
  %.02043 = phi i64 [ 0, %.lr.ph ], [ %59, %58 ]
  %7 = getelementptr inbounds nuw [132 x ptr], ptr @mi_arenas, i64 0, i64 %.02043
  %8 = load atomic i64, ptr %7 monotonic, align 8
  %.not24 = icmp eq i64 %8, 0
  br i1 %.not24, label %.thread, label %9

9:                                                ; preds = %6
  %10 = inttoptr i64 %8 to ptr
  %11 = getelementptr inbounds nuw i8, ptr %10, i64 40
  %12 = load i64, ptr %11, align 8, !tbaa !56
  %13 = getelementptr inbounds nuw i8, ptr %10, i64 48
  %14 = load i64, ptr %13, align 8, !tbaa !17
  %15 = getelementptr inbounds nuw i8, ptr %10, i64 24
  %16 = load i8, ptr %15, align 8, !tbaa !57, !range !26, !noundef !27
  %17 = trunc nuw i8 %16 to i1
  %18 = select i1 %17, ptr @.str.9, ptr @.str.7
  call void (ptr, ...) @_mi_verbose_message(ptr noundef nonnull @.str.8, i64 noundef %.02043, i64 noundef %12, i64 noundef 4, i64 noundef %14, ptr noundef nonnull %18) #20
  %19 = load i64, ptr %11, align 8, !tbaa !56
  %20 = getelementptr inbounds nuw i8, ptr %10, i64 184
  %21 = load i64, ptr %13, align 8, !tbaa !17
  call void (ptr, ...) @_mi_verbose_message(ptr noundef nonnull @.str.22, ptr noundef nonnull @.str.10, ptr noundef nonnull @.str.11) #20
  %.not7.i = icmp eq i64 %21, 0
  br i1 %.not7.i, label %mi_debug_show_bitmap.exit, label %.lr.ph.i

.lr.ph.i:                                         ; preds = %9, %24
  %.06.i = phi i64 [ %25, %24 ], [ 0, %9 ]
  %.0245.i = phi i64 [ %.3.i, %24 ], [ 0, %9 ]
  %.0264.i = phi i64 [ %26, %24 ], [ 0, %9 ]
  call void @llvm.lifetime.start.p0(i64 65, ptr nonnull %2) #21
  %22 = getelementptr inbounds nuw i64, ptr %20, i64 %.0264.i
  %23 = load atomic i64, ptr %22 monotonic, align 8
  br label %27

24:                                               ; preds = %33
  %25 = add i64 %.06.i, 64
  store i8 0, ptr %4, align 16, !tbaa !24
  call void (ptr, ...) @_mi_verbose_message(ptr noundef nonnull @.str.23, ptr noundef nonnull @.str.10, ptr noundef nonnull %2) #20
  call void @llvm.lifetime.end.p0(i64 65, ptr nonnull %2) #21
  %26 = add nuw i64 %.0264.i, 1
  %exitcond8.not.i = icmp eq i64 %26, %21
  br i1 %exitcond8.not.i, label %mi_debug_show_bitmap.exit, label %.lr.ph.i, !llvm.loop !86

27:                                               ; preds = %33, %.lr.ph.i
  %.13.i = phi i64 [ %.06.i, %.lr.ph.i ], [ %36, %33 ]
  %.0232.i = phi i64 [ 0, %.lr.ph.i ], [ %35, %33 ]
  %.1251.i = phi i64 [ %.0245.i, %.lr.ph.i ], [ %.3.i, %33 ]
  %28 = icmp ult i64 %.13.i, %19
  br i1 %28, label %29, label %33

29:                                               ; preds = %27
  %30 = shl nuw i64 1, %.0232.i
  %31 = and i64 %30, %23
  %.not.i = icmp ne i64 %31, 0
  %spec.select.i = select i1 %.not.i, i8 120, i8 46
  %32 = zext i1 %.not.i to i64
  %spec.select27.i = add i64 %.1251.i, %32
  br label %33

33:                                               ; preds = %29, %27
  %.sink.i = phi i8 [ %spec.select.i, %29 ], [ 32, %27 ]
  %.3.i = phi i64 [ %spec.select27.i, %29 ], [ %.1251.i, %27 ]
  %34 = getelementptr inbounds nuw [65 x i8], ptr %2, i64 0, i64 %.0232.i
  store i8 %.sink.i, ptr %34, align 1, !tbaa !24
  %35 = add nuw nsw i64 %.0232.i, 1
  %36 = add i64 %.13.i, 1
  %exitcond.not.i = icmp eq i64 %35, 64
  br i1 %exitcond.not.i, label %24, label %27, !llvm.loop !87

mi_debug_show_bitmap.exit:                        ; preds = %24, %9
  %.024.lcssa.i = phi i64 [ 0, %9 ], [ %.3.i, %24 ]
  call void (ptr, ...) @_mi_verbose_message(ptr noundef nonnull @.str.24, ptr noundef nonnull @.str.10, i64 noundef %.024.lcssa.i) #20
  %37 = add i64 %.024.lcssa.i, %.044
  %38 = getelementptr inbounds nuw i8, ptr %10, i64 160
  %39 = load ptr, ptr %38, align 8, !tbaa !58
  %.not = icmp eq ptr %39, null
  br i1 %.not, label %58, label %40

40:                                               ; preds = %mi_debug_show_bitmap.exit
  %41 = load i64, ptr %11, align 8, !tbaa !56
  %42 = load i64, ptr %13, align 8, !tbaa !17
  call void (ptr, ...) @_mi_verbose_message(ptr noundef nonnull @.str.22, ptr noundef nonnull @.str.10, ptr noundef nonnull @.str.12) #20
  %.not7.i25 = icmp eq i64 %42, 0
  br i1 %.not7.i25, label %mi_debug_show_bitmap.exit41, label %.lr.ph.i26

.lr.ph.i26:                                       ; preds = %40, %45
  %.06.i27 = phi i64 [ %46, %45 ], [ 0, %40 ]
  %.0245.i28 = phi i64 [ %.3.i34, %45 ], [ 0, %40 ]
  %.0264.i29 = phi i64 [ %47, %45 ], [ 0, %40 ]
  call void @llvm.lifetime.start.p0(i64 65, ptr nonnull %1) #21
  %43 = getelementptr inbounds nuw i64, ptr %39, i64 %.0264.i29
  %44 = load atomic i64, ptr %43 monotonic, align 8
  br label %48

45:                                               ; preds = %54
  %46 = add i64 %.06.i27, 64
  store i8 0, ptr %5, align 16, !tbaa !24
  call void (ptr, ...) @_mi_verbose_message(ptr noundef nonnull @.str.23, ptr noundef nonnull @.str.10, ptr noundef nonnull %1) #20
  call void @llvm.lifetime.end.p0(i64 65, ptr nonnull %1) #21
  %47 = add nuw i64 %.0264.i29, 1
  %exitcond8.not.i36 = icmp eq i64 %47, %42
  br i1 %exitcond8.not.i36, label %mi_debug_show_bitmap.exit41, label %.lr.ph.i26, !llvm.loop !86

48:                                               ; preds = %54, %.lr.ph.i26
  %.13.i30 = phi i64 [ %.06.i27, %.lr.ph.i26 ], [ %57, %54 ]
  %.0232.i31 = phi i64 [ 0, %.lr.ph.i26 ], [ %56, %54 ]
  %.1251.i32 = phi i64 [ %.0245.i28, %.lr.ph.i26 ], [ %.3.i34, %54 ]
  %49 = icmp ult i64 %.13.i30, %41
  br i1 %49, label %50, label %54

50:                                               ; preds = %48
  %51 = shl nuw i64 1, %.0232.i31
  %52 = and i64 %51, %44
  %.not.i38 = icmp ne i64 %52, 0
  %spec.select.i39 = select i1 %.not.i38, i8 120, i8 46
  %53 = zext i1 %.not.i38 to i64
  %spec.select27.i40 = add i64 %.1251.i32, %53
  br label %54

54:                                               ; preds = %50, %48
  %.sink.i33 = phi i8 [ %spec.select.i39, %50 ], [ 32, %48 ]
  %.3.i34 = phi i64 [ %spec.select27.i40, %50 ], [ %.1251.i32, %48 ]
  %55 = getelementptr inbounds nuw [65 x i8], ptr %1, i64 0, i64 %.0232.i31
  store i8 %.sink.i33, ptr %55, align 1, !tbaa !24
  %56 = add nuw nsw i64 %.0232.i31, 1
  %57 = add i64 %.13.i30, 1
  %exitcond.not.i35 = icmp eq i64 %56, 64
  br i1 %exitcond.not.i35, label %45, label %48, !llvm.loop !87

mi_debug_show_bitmap.exit41:                      ; preds = %45, %40
  %.024.lcssa.i37 = phi i64 [ 0, %40 ], [ %.3.i34, %45 ]
  call void (ptr, ...) @_mi_verbose_message(ptr noundef nonnull @.str.24, ptr noundef nonnull @.str.10, i64 noundef %.024.lcssa.i37) #20
  br label %58

58:                                               ; preds = %mi_debug_show_bitmap.exit41, %mi_debug_show_bitmap.exit
  %59 = add nuw i64 %.02043, 1
  %exitcond.not = icmp eq i64 %59, %3
  br i1 %exitcond.not, label %.thread, label %6, !llvm.loop !88

.thread:                                          ; preds = %58, %6, %0
  %.0.lcssa = phi i64 [ 0, %0 ], [ %.044, %6 ], [ %37, %58 ]
  call void (ptr, ...) @_mi_verbose_message(ptr noundef nonnull @.str.13, i64 noundef %.0.lcssa) #20
  ret void
}